target datalayout = "e-m:e-p270:32:32-p271:32:32-p272:64:64-i64:64-i128:128-f80:128-n8:16:32:64-S128"
target triple = "x86_64-pc-linux-gnu"

%struct.PaUtilBufferProcessor = type { i64, i64, i32, i32, i32, i32, i64, i32, i32, i32, i32, ptr, ptr, i32, i32, i32, i32, ptr, ptr, i64, i64, ptr, ptr, i64, ptr, ptr, i64, ptr, i64, i32, [2 x i64], [2 x ptr], i32, [2 x i64], [2 x ptr], %struct.PaUtilTriangularDitherGenerator, double, ptr, ptr }
%struct.PaUtilTriangularDitherGenerator = type { i32, i32, i32 }
%struct.PaUtilChannelDescriptor = type { ptr, i32 }

; Function Attrs: nounwind uwtable
define internal void @CopyTempOutputBuffersToHostOutputBuffers(ptr noundef %0) #0 {
  %2 = alloca ptr, align 8
  %3 = alloca i64, align 8
  %4 = alloca ptr, align 8
  %5 = alloca i32, align 4
  %6 = alloca ptr, align 8
  %7 = alloca i32, align 4
  %8 = alloca i32, align 4
  %9 = alloca i32, align 4
  store ptr %0, ptr %2, align 8
  br label %10

10:                                               ; preds = %219, %1
  %11 = load ptr, ptr %2, align 8
  %12 = getelementptr inbounds nuw %struct.PaUtilBufferProcessor, ptr %11, i32 0, i32 26
  %13 = load i64, ptr %12, align 8
  %14 = icmp ugt i64 %13, 0
  br i1 %14, label %15, label %26

15:                                               ; preds = %10
  %16 = load ptr, ptr %2, align 8
  %17 = getelementptr inbounds nuw %struct.PaUtilBufferProcessor, ptr %16, i32 0, i32 33
  %18 = getelementptr inbounds [2 x i64], ptr %17, i64 0, i64 0
  %19 = load i64, ptr %18, align 8
  %20 = load ptr, ptr %2, align 8
  %21 = getelementptr inbounds nuw %struct.PaUtilBufferProcessor, ptr %20, i32 0, i32 33
  %22 = getelementptr inbounds [2 x i64], ptr %21, i64 0, i64 1
  %23 = load i64, ptr %22, align 8
  %24 = add i64 %19, %23
  %25 = icmp ugt i64 %24, 0
  br label %26

26:                                               ; preds = %15, %10
  %27 = phi i1 [ false, %10 ], [ %25, %15 ]
  br i1 %27, label %28, label %226

28:                                               ; preds = %26
  %29 = load ptr, ptr %2, align 8
  %30 = getelementptr inbounds nuw %struct.PaUtilBufferProcessor, ptr %29, i32 0, i32 26
  %31 = load i64, ptr %30, align 8
  store i64 %31, ptr %3, align 8
  %32 = load ptr, ptr %2, align 8
  %33 = getelementptr inbounds nuw %struct.PaUtilBufferProcessor, ptr %32, i32 0, i32 33
  %34 = getelementptr inbounds [2 x i64], ptr %33, i64 0, i64 0
  %35 = load i64, ptr %34, align 8
  %36 = icmp ugt i64 %35, 0
  br i1 %36, label %37, label %58

37:                                               ; preds = %28
  %38 = load ptr, ptr %2, align 8
  %39 = getelementptr inbounds nuw %struct.PaUtilBufferProcessor, ptr %38, i32 0, i32 34
  %40 = getelementptr inbounds [2 x ptr], ptr %39, i64 0, i64 0
  %41 = load ptr, ptr %40, align 8
  store ptr %41, ptr %4, align 8
  %42 = load ptr, ptr %2, align 8
  %43 = getelementptr inbounds nuw %struct.PaUtilBufferProcessor, ptr %42, i32 0, i32 33
  %44 = getelementptr inbounds [2 x i64], ptr %43, i64 0, i64 0
  %45 = load i64, ptr %44, align 8
  %46 = load i64, ptr %3, align 8
  %47 = icmp ult i64 %45, %46
  br i1 %47, label %48, label %53

48:                                               ; preds = %37
  %49 = load ptr, ptr %2, align 8
  %50 = getelementptr inbounds nuw %struct.PaUtilBufferProcessor, ptr %49, i32 0, i32 33
  %51 = getelementptr inbounds [2 x i64], ptr %50, i64 0, i64 0
  %52 = load i64, ptr %51, align 8
  br label %55

53:                                               ; preds = %37
  %54 = load i64, ptr %3, align 8
  br label %55

55:                                               ; preds = %53, %48
  %56 = phi i64 [ %52, %48 ], [ %54, %53 ]
  %57 = trunc i64 %56 to i32
  store i32 %57, ptr %5, align 4
  br label %79

58:                                               ; preds = %28
  %59 = load ptr, ptr %2, align 8
  %60 = getelementptr inbounds nuw %struct.PaUtilBufferProcessor, ptr %59, i32 0, i32 34
  %61 = getelementptr inbounds [2 x ptr], ptr %60, i64 0, i64 1
  %62 = load ptr, ptr %61, align 8
  store ptr %62, ptr %4, align 8
  %63 = load ptr, ptr %2, align 8
  %64 = getelementptr inbounds nuw %struct.PaUtilBufferProcessor, ptr %63, i32 0, i32 33
  %65 = getelementptr inbounds [2 x i64], ptr %64, i64 0, i64 1
  %66 = load i64, ptr %65, align 8
  %67 = load i64, ptr %3, align 8
  %68 = icmp ult i64 %66, %67
  br i1 %68, label %69, label %74

69:                                               ; preds = %58
  %70 = load ptr, ptr %2, align 8
  %71 = getelementptr inbounds nuw %struct.PaUtilBufferProcessor, ptr %70, i32 0, i32 33
  %72 = getelementptr inbounds [2 x i64], ptr %71, i64 0, i64 1
  %73 = load i64, ptr %72, align 8
  br label %76

74:                                               ; preds = %58
  %75 = load i64, ptr %3, align 8
  br label %76

76:                                               ; preds = %74, %69
  %77 = phi i64 [ %73, %69 ], [ %75, %74 ]
  %78 = trunc i64 %77 to i32
  store i32 %78, ptr %5, align 4
  br label %79

79:                                               ; preds = %76, %55
  %80 = load ptr, ptr %2, align 8
  %81 = getelementptr inbounds nuw %struct.PaUtilBufferProcessor, ptr %80, i32 0, i32 16
  %82 = load i32, ptr %81, align 4
  %83 = icmp ne i32 %82, 0
  br i1 %83, label %84, label %111

84:                                               ; preds = %79
  %85 = load ptr, ptr %2, align 8
  %86 = getelementptr inbounds nuw %struct.PaUtilBufferProcessor, ptr %85, i32 0, i32 24
  %87 = load ptr, ptr %86, align 8
  %88 = load ptr, ptr %2, align 8
  %89 = getelementptr inbounds nuw %struct.PaUtilBufferProcessor, ptr %88, i32 0, i32 15
  %90 = load i32, ptr %89, align 8
  %91 = load ptr, ptr %2, align 8
  %92 = getelementptr inbounds nuw %struct.PaUtilBufferProcessor, ptr %91, i32 0, i32 13
  %93 = load i32, ptr %92, align 8
  %94 = mul i32 %90, %93
  %95 = zext i32 %94 to i64
  %96 = load ptr, ptr %2, align 8
  %97 = getelementptr inbounds nuw %struct.PaUtilBufferProcessor, ptr %96, i32 0, i32 0
  %98 = load i64, ptr %97, align 8
  %99 = load ptr, ptr %2, align 8
  %100 = getelementptr inbounds nuw %struct.PaUtilBufferProcessor, ptr %99, i32 0, i32 26
  %101 = load i64, ptr %100, align 8
  %102 = sub i64 %98, %101
  %103 = mul i64 %95, %102
  %104 = getelementptr inbounds i8, ptr %87, i64 %103
  store ptr %104, ptr %6, align 8
  %105 = load ptr, ptr %2, align 8
  %106 = getelementptr inbounds nuw %struct.PaUtilBufferProcessor, ptr %105, i32 0, i32 13
  %107 = load i32, ptr %106, align 8
  store i32 %107, ptr %7, align 4
  %108 = load ptr, ptr %2, align 8
  %109 = getelementptr inbounds nuw %struct.PaUtilBufferProcessor, ptr %108, i32 0, i32 15
  %110 = load i32, ptr %109, align 8
  store i32 %110, ptr %8, align 4
  br label %137

111:                                              ; preds = %79
  %112 = load ptr, ptr %2, align 8
  %113 = getelementptr inbounds nuw %struct.PaUtilBufferProcessor, ptr %112, i32 0, i32 24
  %114 = load ptr, ptr %113, align 8
  %115 = load ptr, ptr %2, align 8
  %116 = getelementptr inbounds nuw %struct.PaUtilBufferProcessor, ptr %115, i32 0, i32 15
  %117 = load i32, ptr %116, align 8
  %118 = zext i32 %117 to i64
  %119 = load ptr, ptr %2, align 8
  %120 = getelementptr inbounds nuw %struct.PaUtilBufferProcessor, ptr %119, i32 0, i32 0
  %121 = load i64, ptr %120, align 8
  %122 = load ptr, ptr %2, align 8
  %123 = getelementptr inbounds nuw %struct.PaUtilBufferProcessor, ptr %122, i32 0, i32 26
  %124 = load i64, ptr %123, align 8
  %125 = sub i64 %121, %124
  %126 = mul i64 %118, %125
  %127 = getelementptr inbounds i8, ptr %114, i64 %126
  store ptr %127, ptr %6, align 8
  store i32 1, ptr %7, align 4
  %128 = load ptr, ptr %2, align 8
  %129 = getelementptr inbounds nuw %struct.PaUtilBufferProcessor, ptr %128, i32 0, i32 0
  %130 = load i64, ptr %129, align 8
  %131 = load ptr, ptr %2, align 8
  %132 = getelementptr inbounds nuw %struct.PaUtilBufferProcessor, ptr %131, i32 0, i32 15
  %133 = load i32, ptr %132, align 8
  %134 = zext i32 %133 to i64
  %135 = mul i64 %130, %134
  %136 = trunc i64 %135 to i32
  store i32 %136, ptr %8, align 4
  br label %137

137:                                              ; preds = %111, %84
  store i32 0, ptr %9, align 4
  br label %138

138:                                              ; preds = %194, %137
  %139 = load i32, ptr %9, align 4
  %140 = load ptr, ptr %2, align 8
  %141 = getelementptr inbounds nuw %struct.PaUtilBufferProcessor, ptr %140, i32 0, i32 13
  %142 = load i32, ptr %141, align 8
  %143 = icmp ult i32 %139, %142
  br i1 %143, label %144, label %197

144:                                              ; preds = %138
  %145 = load ptr, ptr %2, align 8
  %146 = getelementptr inbounds nuw %struct.PaUtilBufferProcessor, ptr %145, i32 0, i32 17
  %147 = load ptr, ptr %146, align 8
  %148 = load ptr, ptr %4, align 8
  %149 = load i32, ptr %9, align 4
  %150 = zext i32 %149 to i64
  %151 = getelementptr inbounds %struct.PaUtilChannelDescriptor, ptr %148, i64 %150
  %152 = getelementptr inbounds nuw %struct.PaUtilChannelDescriptor, ptr %151, i32 0, i32 0
  %153 = load ptr, ptr %152, align 8
  %154 = load ptr, ptr %4, align 8
  %155 = load i32, ptr %9, align 4
  %156 = zext i32 %155 to i64
  %157 = getelementptr inbounds %struct.PaUtilChannelDescriptor, ptr %154, i64 %156
  %158 = getelementptr inbounds nuw %struct.PaUtilChannelDescriptor, ptr %157, i32 0, i32 1
  %159 = load i32, ptr %158, align 8
  %160 = load ptr, ptr %6, align 8
  %161 = load i32, ptr %7, align 4
  %162 = load i32, ptr %5, align 4
  %163 = load ptr, ptr %2, align 8
  %164 = getelementptr inbounds nuw %struct.PaUtilBufferProcessor, ptr %163, i32 0, i32 35
  call void %147(ptr noundef %153, i32 noundef %159, ptr noundef %160, i32 noundef %161, i32 noundef %162, ptr noundef %164)
  %165 = load i32, ptr %8, align 4
  %166 = load ptr, ptr %6, align 8
  %167 = zext i32 %165 to i64
  %168 = getelementptr inbounds i8, ptr %166, i64 %167
  store ptr %168, ptr %6, align 8
  %169 = load ptr, ptr %4, align 8
  %170 = load i32, ptr %9, align 4
  %171 = zext i32 %170 to i64
  %172 = getelementptr inbounds %struct.PaUtilChannelDescriptor, ptr %169, i64 %171
  %173 = getelementptr inbounds nuw %struct.PaUtilChannelDescriptor, ptr %172, i32 0, i32 0
  %174 = load ptr, ptr %173, align 8
  %175 = load i32, ptr %5, align 4
  %176 = load ptr, ptr %4, align 8
  %177 = load i32, ptr %9, align 4
  %178 = zext i32 %177 to i64
  %179 = getelementptr inbounds %struct.PaUtilChannelDescriptor, ptr %176, i64 %178
  %180 = getelementptr inbounds nuw %struct.PaUtilChannelDescriptor, ptr %179, i32 0, i32 1
  %181 = load i32, ptr %180, align 8
  %182 = mul i32 %175, %181
  %183 = load ptr, ptr %2, align 8
  %184 = getelementptr inbounds nuw %struct.PaUtilBufferProcessor, ptr %183, i32 0, i32 14
  %185 = load i32, ptr %184, align 4
  %186 = mul i32 %182, %185
  %187 = zext i32 %186 to i64
  %188 = getelementptr inbounds i8, ptr %174, i64 %187
  %189 = load ptr, ptr %4, align 8
  %190 = load i32, ptr %9, align 4
  %191 = zext i32 %190 to i64
  %192 = getelementptr inbounds %struct.PaUtilChannelDescriptor, ptr %189, i64 %191
  %193 = getelementptr inbounds nuw %struct.PaUtilChannelDescriptor, ptr %192, i32 0, i32 0
  store ptr %188, ptr %193, align 8
  br label %194

194:                                              ; preds = %144
  %195 = load i32, ptr %9, align 4
  %196 = add i32 %195, 1
  store i32 %196, ptr %9, align 4
  br label %138, !llvm.loop !41

197:                                              ; preds = %138
  %198 = load ptr, ptr %2, align 8
  %199 = getelementptr inbounds nuw %struct.PaUtilBufferProcessor, ptr %198, i32 0, i32 33
  %200 = getelementptr inbounds [2 x i64], ptr %199, i64 0, i64 0
  %201 = load i64, ptr %200, align 8
  %202 = icmp ugt i64 %201, 0
  br i1 %202, label %203, label %211

203:                                              ; preds = %197
  %204 = load i32, ptr %5, align 4
  %205 = zext i32 %204 to i64
  %206 = load ptr, ptr %2, align 8
  %207 = getelementptr inbounds nuw %struct.PaUtilBufferProcessor, ptr %206, i32 0, i32 33
  %208 = getelementptr inbounds [2 x i64], ptr %207, i64 0, i64 0
  %209 = load i64, ptr %208, align 8
  %210 = sub i64 %209, %205
  store i64 %210, ptr %208, align 8
  br label %219

211:                                              ; preds = %197
  %212 = load i32, ptr %5, align 4
  %213 = zext i32 %212 to i64
  %214 = load ptr, ptr %2, align 8
  %215 = getelementptr inbounds nuw %struct.PaUtilBufferProcessor, ptr %214, i32 0, i32 33
  %216 = getelementptr inbounds [2 x i64], ptr %215, i64 0, i64 1
  %217 = load i64, ptr %216, align 8
  %218 = sub i64 %217, %213
  store i64 %218, ptr %216, align 8
  br label %219

219:                                              ; preds = %211, %203
  %220 = load i32, ptr %5, align 4
  %221 = zext i32 %220 to i64
  %222 = load ptr, ptr %2, align 8
  %223 = getelementptr inbounds nuw %struct.PaUtilBufferProcessor, ptr %222, i32 0, i32 26
  %224 = load i64, ptr %223, align 8
  %225 = sub i64 %224, %221
  store i64 %225, ptr %223, align 8
  br label %10, !llvm.loop !42

226:                                              ; preds = %26
  ret void
}