; Function Attrs: nounwind uwtable
define internal fastcc void @CopyTempOutputBuffersToHostOutputBuffers(ptr noundef %0) unnamed_addr #0 {
  %2 = getelementptr inbounds nuw i8, ptr %0, i64 232
  %3 = getelementptr inbounds nuw i8, ptr %0, i64 160
  %4 = load i64, ptr %3, align 8
  %.not73 = icmp eq i64 %4, 0
  br i1 %.not73, label %.critedge, label %.lr.ph75

.lr.ph75:                                         ; preds = %1
  %5 = getelementptr inbounds i8, ptr %0, i64 240
  %6 = getelementptr inbounds nuw i8, ptr %0, i64 84
  %7 = getelementptr inbounds nuw i8, ptr %0, i64 144
  %8 = getelementptr inbounds nuw i8, ptr %0, i64 80
  %9 = getelementptr inbounds nuw i8, ptr %0, i64 72
  %10 = getelementptr inbounds nuw i8, ptr %0, i64 88
  %11 = getelementptr inbounds nuw i8, ptr %0, i64 264
  %12 = getelementptr inbounds nuw i8, ptr %0, i64 76
  %.pre = load i64, ptr %2, align 8
  br label %13

13:                                               ; preds = %.lr.ph75, %63
  %14 = phi i64 [ %.pre, %.lr.ph75 ], [ %64, %63 ]
  %15 = phi i64 [ %4, %.lr.ph75 ], [ %66, %63 ]
  %16 = load i64, ptr %5, align 8
  %17 = sub i64 0, %16
  %.not66 = icmp eq i64 %14, %17
  br i1 %.not66, label %.critedge, label %18

18:                                               ; preds = %13
  %.not67 = icmp eq i64 %14, 0
  %. = select i1 %.not67, i64 %16, i64 %14
  %.81.v = select i1 %.not67, i64 256, i64 248
  %.81 = getelementptr inbounds i8, ptr %0, i64 %.81.v
  %.70 = tail call i64 @llvm.umin.i64(i64 %., i64 %15)
  %.061 = load ptr, ptr %.81, align 8
  %.060 = trunc i64 %.70 to i32
  %19 = load i32, ptr %6, align 4
  %.not68 = icmp eq i32 %19, 0
  %20 = load ptr, ptr %7, align 8
  %21 = load i32, ptr %8, align 8
  br i1 %.not68, label %29, label %22

22:                                               ; preds = %18
  %23 = load i32, ptr %9, align 8
  %24 = mul i32 %23, %21
  %25 = zext i32 %24 to i64
  %26 = load i64, ptr %0, align 8
  %27 = sub i64 %26, %15
  %28 = mul i64 %27, %25
  br label %36

29:                                               ; preds = %18
  %30 = zext i32 %21 to i64
  %31 = load i64, ptr %0, align 8
  %32 = sub i64 %31, %15
  %33 = mul i64 %32, %30
  %34 = trunc i64 %31 to i32
  %35 = mul i32 %21, %34
  %.pre79 = load i32, ptr %9, align 8
  br label %36

36:                                               ; preds = %29, %22
  %37 = phi i32 [ %23, %22 ], [ %.pre79, %29 ]
  %.pn = phi i64 [ %28, %22 ], [ %33, %29 ]
  %.058 = phi i32 [ %23, %22 ], [ 1, %29 ]
  %.057 = phi i32 [ %21, %22 ], [ %35, %29 ]
  %.not77 = icmp eq i32 %37, 0
  br i1 %.not77, label %._crit_edge, label %.lr.ph

.lr.ph:                                           ; preds = %36
  %.059 = getelementptr inbounds i8, ptr %20, i64 %.pn
  %38 = zext i32 %.057 to i64
  br label %39

39:                                               ; preds = %.lr.ph, %39
  %indvars.iv = phi i64 [ 0, %.lr.ph ], [ %indvars.iv.next, %39 ]
  %.171 = phi ptr [ %.059, %.lr.ph ], [ %45, %39 ]
  %40 = load ptr, ptr %10, align 8
  %41 = getelementptr inbounds %struct.PaUtilChannelDescriptor, ptr %.061, i64 %indvars.iv
  %42 = load ptr, ptr %41, align 8
  %43 = getelementptr inbounds nuw i8, ptr %41, i64 8
  %44 = load i32, ptr %43, align 8
  tail call void %40(ptr noundef %42, i32 noundef %44, ptr noundef %.171, i32 noundef %.058, i32 noundef %.060, ptr noundef nonnull %11) #11
  %45 = getelementptr inbounds i8, ptr %.171, i64 %38
  %46 = load ptr, ptr %41, align 8
  %47 = load i32, ptr %43, align 8
  %48 = mul i32 %47, %.060
  %49 = load i32, ptr %12, align 4
  %50 = mul i32 %48, %49
  %51 = zext i32 %50 to i64
  %52 = getelementptr inbounds i8, ptr %46, i64 %51
  store ptr %52, ptr %41, align 8
  %indvars.iv.next = add nuw nsw i64 %indvars.iv, 1
  %53 = load i32, ptr %9, align 8
  %54 = zext i32 %53 to i64
  %55 = icmp ult i64 %indvars.iv.next, %54
  br i1 %55, label %39, label %._crit_edge.loopexit, !llvm.loop !41

._crit_edge.loopexit:                             ; preds = %39
  %.pre80 = load i64, ptr %2, align 8
  br label %._crit_edge

._crit_edge:                                      ; preds = %._crit_edge.loopexit, %36
  %56 = phi i64 [ %.pre80, %._crit_edge.loopexit ], [ %14, %36 ]
  %.not69 = icmp eq i64 %56, 0
  %57 = and i64 %.70, 4294967295
  br i1 %.not69, label %60, label %58

58:                                               ; preds = %._crit_edge
  %59 = sub i64 %56, %57
  store i64 %59, ptr %2, align 8
  br label %63

60:                                               ; preds = %._crit_edge
  %61 = load i64, ptr %5, align 8
  %62 = sub i64 %61, %57
  store i64 %62, ptr %5, align 8
  br label %63

63:                                               ; preds = %60, %58
  %64 = phi i64 [ 0, %60 ], [ %59, %58 ]
  %65 = load i64, ptr %3, align 8
  %66 = sub i64 %65, %57
  store i64 %66, ptr %3, align 8
  %.not = icmp eq i64 %66, 0
  br i1 %.not, label %.critedge, label %13, !llvm.loop !42

.critedge:                                        ; preds = %13, %63, %1
  ret void
}